; Function Attrs: mustprogress uwtable
define dso_local void @_ZNK9struct_pb8compiler20StringFieldGenerator27generate_serialization_onlyEPN6google8protobuf2io7PrinterERKNSt7__cxx1112basic_stringIcSt11char_traitsIcESaIcEEE(ptr nocapture noundef nonnull readonly align 8 dereferenceable(64) %this, ptr noundef %p, ptr noundef nonnull align 8 dereferenceable(32) %value) local_unnamed_addr #3 align 2 personality ptr @__gxx_personality_v0 {
entry:
  %format = alloca %"class.struct_pb::compiler::Formatter", align 8
  %ref.tmp = alloca %"class.std::__cxx11::basic_string", align 8
  store ptr %p, ptr %format, align 8
  %0 = getelementptr inbounds i8, ptr %format, i64 16
  store i32 0, ptr %0, align 8
  %_M_parent.i.i.i.i.i.i = getelementptr inbounds i8, ptr %format, i64 24
  store ptr null, ptr %_M_parent.i.i.i.i.i.i, align 8
  %_M_left.i.i.i.i.i.i = getelementptr inbounds i8, ptr %format, i64 32
  store ptr %0, ptr %_M_left.i.i.i.i.i.i, align 8
  %_M_right.i.i.i.i.i.i = getelementptr inbounds i8, ptr %format, i64 40
  store ptr %0, ptr %_M_right.i.i.i.i.i.i, align 8
  %_M_node_count.i.i.i.i.i.i = getelementptr inbounds i8, ptr %format, i64 48
  store i64 0, ptr %_M_node_count.i.i.i.i.i.i, align 8
  %d_ = getelementptr inbounds i8, ptr %this, i64 56
  %1 = load ptr, ptr %d_, align 8
  invoke void @_ZN9struct_pb8compiler17calculate_tag_strB5cxx11EPKN6google8protobuf15FieldDescriptorEb(ptr nonnull sret(%"class.std::__cxx11::basic_string") align 8 %ref.tmp, ptr noundef %1, i1 noundef zeroext false)
          to label %invoke.cont unwind label %lpad

invoke.cont:                                      ; preds = %entry
  invoke void @_ZNK9struct_pb8compiler9FormatterclIJNSt7__cxx1112basic_stringIcSt11char_traitsIcESaIcEEEEEEvPKcDpRKT_(ptr noundef nonnull align 8 dereferenceable(56) %format, ptr noundef nonnull @.str.7, ptr noundef nonnull align 8 dereferenceable(32) %ref.tmp)
          to label %invoke.cont3 unwind label %lpad2

invoke.cont3:                                     ; preds = %invoke.cont
  %2 = load ptr, ptr %ref.tmp, align 8
  %3 = getelementptr inbounds i8, ptr %ref.tmp, i64 16
  %cmp.i.i.i = icmp eq ptr %2, %3
  br i1 %cmp.i.i.i, label %_ZNKSt7__cxx1112basic_stringIcSt11char_traitsIcESaIcEE11_M_is_localEv.exit.thread.i.i, label %if.then.i.i

_ZNKSt7__cxx1112basic_stringIcSt11char_traitsIcESaIcEE11_M_is_localEv.exit.thread.i.i: ; preds = %invoke.cont3
  %_M_string_length.i.i.i = getelementptr inbounds i8, ptr %ref.tmp, i64 8
  %4 = load i64, ptr %_M_string_length.i.i.i, align 8
  %cmp3.i.i.i = icmp ult i64 %4, 16
  call void @llvm.assume(i1 %cmp3.i.i.i)
  br label %_ZNSt7__cxx1112basic_stringIcSt11char_traitsIcESaIcEED2Ev.exit

if.then.i.i:                                      ; preds = %invoke.cont3
  call void @_ZdlPv(ptr noundef %2) #18
  br label %_ZNSt7__cxx1112basic_stringIcSt11char_traitsIcESaIcEED2Ev.exit

_ZNSt7__cxx1112basic_stringIcSt11char_traitsIcESaIcEED2Ev.exit: ; preds = %_ZNKSt7__cxx1112basic_stringIcSt11char_traitsIcESaIcEE11_M_is_localEv.exit.thread.i.i, %if.then.i.i
  call void @_ZNSaIcED2Ev(ptr noundef nonnull align 1 dereferenceable(1) %ref.tmp) #19
  invoke void @_ZNK9struct_pb8compiler9FormatterclIJNSt7__cxx1112basic_stringIcSt11char_traitsIcESaIcEEEEEEvPKcDpRKT_(ptr noundef nonnull align 8 dereferenceable(56) %format, ptr noundef nonnull @.str.8, ptr noundef nonnull align 8 dereferenceable(32) %value)
          to label %invoke.cont4 unwind label %lpad

invoke.cont4:                                     ; preds = %_ZNSt7__cxx1112basic_stringIcSt11char_traitsIcESaIcEED2Ev.exit
  invoke void @_ZNK9struct_pb8compiler9FormatterclIJNSt7__cxx1112basic_stringIcSt11char_traitsIcESaIcEEEEEEvPKcDpRKT_(ptr noundef nonnull align 8 dereferenceable(56) %format, ptr noundef nonnull @.str.9, ptr noundef nonnull align 8 dereferenceable(32) %value)
          to label %invoke.cont5 unwind label %lpad

invoke.cont5:                                     ; preds = %invoke.cont4
  invoke void @_ZNK9struct_pb8compiler9FormatterclIJNSt7__cxx1112basic_stringIcSt11char_traitsIcESaIcEEEEEEvPKcDpRKT_(ptr noundef nonnull align 8 dereferenceable(56) %format, ptr noundef nonnull @.str.10, ptr noundef nonnull align 8 dereferenceable(32) %value)
          to label %invoke.cont6 unwind label %lpad

invoke.cont6:                                     ; preds = %invoke.cont5
  %vars_.i = getelementptr inbounds i8, ptr %format, i64 8
  %5 = load ptr, ptr %_M_parent.i.i.i.i.i.i, align 8
  invoke void @_ZNSt8_Rb_treeINSt7__cxx1112basic_stringIcSt11char_traitsIcESaIcEEESt4pairIKS5_S5_ESt10_Select1stIS8_ESt4lessIS5_ESaIS8_EE8_M_eraseEPSt13_Rb_tree_nodeIS8_E(ptr noundef nonnull align 8 dereferenceable(48) %vars_.i, ptr noundef %5)
          to label %_ZN9struct_pb8compiler9FormatterD2Ev.exit unwind label %terminate.lpad.i.i.i

terminate.lpad.i.i.i:                             ; preds = %invoke.cont6
  %6 = landingpad { ptr, i32 }
          catch ptr null
  %7 = extractvalue { ptr, i32 } %6, 0
  call void @__clang_call_terminate(ptr %7) #20
  unreachable

_ZN9struct_pb8compiler9FormatterD2Ev.exit:        ; preds = %invoke.cont6
  ret void

lpad:                                             ; preds = %invoke.cont5, %invoke.cont4, %_ZNSt7__cxx1112basic_stringIcSt11char_traitsIcESaIcEED2Ev.exit, %entry
  %8 = landingpad { ptr, i32 }
          cleanup
  br label %ehcleanup

lpad2:                                            ; preds = %invoke.cont
  %9 = landingpad { ptr, i32 }
          cleanup
  call void @_ZNSt7__cxx1112basic_stringIcSt11char_traitsIcESaIcEED2Ev(ptr noundef nonnull align 8 dereferenceable(32) %ref.tmp) #19
  br label %ehcleanup

ehcleanup:                                        ; preds = %lpad2, %lpad
  %.pn = phi { ptr, i32 } [ %8, %lpad ], [ %9, %lpad2 ]
  call void @_ZN9struct_pb8compiler9FormatterD2Ev(ptr noundef nonnull align 8 dereferenceable(56) %format) #19
  resume { ptr, i32 } %.pn
}